target datalayout = "e-m:e-p270:32:32-p271:32:32-p272:64:64-i64:64-i128:128-f80:128-n8:16:32:64-S128"
target triple = "x86_64-pc-linux-gnu"

%struct.EState = type { i32, i32, ptr, ptr, ptr, i32, ptr, ptr, ptr, ptr, ptr, ptr, ptr, ptr, ptr, ptr, i32, ptr, ptr, ptr, ptr, ptr, ptr, ptr, ptr, ptr, ptr, i64, i64, i32, i32, i8, ptr, ptr, ptr, ptr, ptr, i8, i32, i32, ptr, i32, ptr, ptr, ptr, ptr }
%struct.EPQState = type { ptr, i32, ptr, ptr, ptr, ptr, ptr, ptr, ptr, ptr, ptr, ptr, ptr }

; Function Attrs: nounwind uwtable
define dso_local void @EvalPlanQualInit(ptr noundef %0, ptr noundef %1, ptr noundef %2, ptr noundef %3, i32 noundef %4, ptr noundef %5) #0 {
  %7 = alloca ptr, align 8
  %8 = alloca ptr, align 8
  %9 = alloca ptr, align 8
  %10 = alloca ptr, align 8
  %11 = alloca i32, align 4
  %12 = alloca ptr, align 8
  %13 = alloca i32, align 4
  store ptr %0, ptr %7, align 8
  store ptr %1, ptr %8, align 8
  store ptr %2, ptr %9, align 8
  store ptr %3, ptr %10, align 8
  store i32 %4, ptr %11, align 4
  store ptr %5, ptr %12, align 8
  call void @llvm.lifetime.start.p0(i64 4, ptr %13) #9
  %14 = load ptr, ptr %8, align 8
  %15 = getelementptr inbounds nuw %struct.EState, ptr %14, i32 0, i32 5
  %16 = load i32, ptr %15, align 8
  store i32 %16, ptr %13, align 4
  %17 = load ptr, ptr %8, align 8
  %18 = load ptr, ptr %7, align 8
  %19 = getelementptr inbounds nuw %struct.EPQState, ptr %18, i32 0, i32 0
  store ptr %17, ptr %19, align 8
  %20 = load i32, ptr %11, align 4
  %21 = load ptr, ptr %7, align 8
  %22 = getelementptr inbounds nuw %struct.EPQState, ptr %21, i32 0, i32 1
  store i32 %20, ptr %22, align 8
  %23 = load ptr, ptr %12, align 8
  %24 = load ptr, ptr %7, align 8
  %25 = getelementptr inbounds nuw %struct.EPQState, ptr %24, i32 0, i32 2
  store ptr %23, ptr %25, align 8
  %26 = load ptr, ptr %7, align 8
  %27 = getelementptr inbounds nuw %struct.EPQState, ptr %26, i32 0, i32 3
  store ptr null, ptr %27, align 8
  %28 = load i32, ptr %13, align 4
  %29 = zext i32 %28 to i64
  %30 = mul i64 %29, 8
  %31 = call ptr @palloc0(i64 noundef %30)
  %32 = load ptr, ptr %7, align 8
  %33 = getelementptr inbounds nuw %struct.EPQState, ptr %32, i32 0, i32 4
  store ptr %31, ptr %33, align 8
  %34 = load ptr, ptr %9, align 8
  %35 = load ptr, ptr %7, align 8
  %36 = getelementptr inbounds nuw %struct.EPQState, ptr %35, i32 0, i32 5
  store ptr %34, ptr %36, align 8
  %37 = load ptr, ptr %10, align 8
  %38 = load ptr, ptr %7, align 8
  %39 = getelementptr inbounds nuw %struct.EPQState, ptr %38, i32 0, i32 6
  store ptr %37, ptr %39, align 8
  %40 = load ptr, ptr %7, align 8
  %41 = getelementptr inbounds nuw %struct.EPQState, ptr %40, i32 0, i32 7
  store ptr null, ptr %41, align 8
  %42 = load ptr, ptr %7, align 8
  %43 = getelementptr inbounds nuw %struct.EPQState, ptr %42, i32 0, i32 8
  store ptr null, ptr %43, align 8
  %44 = load ptr, ptr %7, align 8
  %45 = getelementptr inbounds nuw %struct.EPQState, ptr %44, i32 0, i32 12
  store ptr null, ptr %45, align 8
  %46 = load ptr, ptr %7, align 8
  %47 = getelementptr inbounds nuw %struct.EPQState, ptr %46, i32 0, i32 9
  store ptr null, ptr %47, align 8
  %48 = load ptr, ptr %7, align 8
  %49 = getelementptr inbounds nuw %struct.EPQState, ptr %48, i32 0, i32 10
  store ptr null, ptr %49, align 8
  %50 = load ptr, ptr %7, align 8
  %51 = getelementptr inbounds nuw %struct.EPQState, ptr %50, i32 0, i32 11
  store ptr null, ptr %51, align 8
  call void @llvm.lifetime.end.p0(i64 4, ptr %13) #9
  ret void
}