; Function Attrs: nounwind uwtable
define dso_local void @EvalPlanQualInit(ptr noundef writeonly captures(none) initializes((0, 12), (16, 104)) %0, ptr noundef %1, ptr noundef %2, ptr noundef %3, i32 noundef %4, ptr noundef %5) local_unnamed_addr #0 {
  %7 = getelementptr inbounds nuw i8, ptr %1, i64 32
  %8 = load i32, ptr %7, align 8
  store ptr %1, ptr %0, align 8
  %9 = getelementptr inbounds nuw i8, ptr %0, i64 8
  store i32 %4, ptr %9, align 8
  %10 = getelementptr inbounds nuw i8, ptr %0, i64 16
  store ptr %5, ptr %10, align 8
  %11 = getelementptr inbounds nuw i8, ptr %0, i64 24
  store ptr null, ptr %11, align 8
  %12 = zext i32 %8 to i64
  %13 = shl nuw nsw i64 %12, 3
  %14 = tail call ptr @palloc0(i64 noundef %13) #9
  %15 = getelementptr inbounds nuw i8, ptr %0, i64 32
  store ptr %14, ptr %15, align 8
  %16 = getelementptr inbounds nuw i8, ptr %0, i64 40
  store ptr %2, ptr %16, align 8
  %17 = getelementptr inbounds nuw i8, ptr %0, i64 48
  store ptr %3, ptr %17, align 8
  %18 = getelementptr inbounds nuw i8, ptr %0, i64 56
  tail call void @llvm.memset.p0.i64(ptr noundef nonnull align 8 dereferenceable(48) %18, i8 0, i64 48, i1 false)
  ret void
}